(lp0
(S'stty'
p1
S'/bin/stty'
p2
tp3
a(S'build_dir'
p4
S'.build/uno'
p5
tp6
a(S'boards.txt'
p7
S'/Applications/Arduino.app/Contents/Resources/Java/hardware/arduino/boards.txt'
p8
tp9
a(S'avrdude'
p10
S'/Applications/Arduino.app/Contents/Resources/Java/hardware/tools/avr/bin/avrdude'
p11
tp12
a(S'avrdude.conf'
p13
S'/Applications/Arduino.app/Contents/Resources/Java/hardware/tools/avr/etc/avrdude.conf'
p14
tp15
a(S'board_models'
p16
cino.environment
BoardModels
p17
((lp18
(lp19
S'uno'
p20
a(dp21
S'bootloader'
p22
(dp23
S'extended_fuses'
p24
S'0x05'
p25
sS'high_fuses'
p26
S'0xde'
p27
sS'low_fuses'
p28
S'0xff'
p29
sS'lock_bits'
p30
S'0x0F'
p31
sS'file'
p32
S'optiboot_atmega328.hex'
p33
sS'path'
p34
S'optiboot'
p35
sS'unlock_bits'
p36
S'0x3F'
p37
ssS'upload'
p38
(dp39
S'speed'
p40
S'115200'
p41
sS'maximum_size'
p42
S'32256'
p43
sS'protocol'
p44
S'arduino'
p45
ssS'name'
p46
S'Arduino Uno'
p47
sS'build'
p48
(dp49
S'core'
p50
S'arduino'
p51
sS'mcu'
p52
S'atmega328p'
p53
sS'f_cpu'
p54
S'16000000L'
p55
sS'variant'
p56
S'standard'
p57
ssaa(lp58
S'atmega328'
p59
a(dp60
S'bootloader'
p61
(dp62
S'extended_fuses'
p63
S'0x05'
p64
sS'high_fuses'
p65
S'0xDA'
p66
sS'low_fuses'
p67
S'0xFF'
p68
sS'lock_bits'
p69
S'0x0F'
p70
sS'file'
p71
S'ATmegaBOOT_168_atmega328.hex'
p72
sS'path'
p73
S'atmega'
p74
sS'unlock_bits'
p75
S'0x3F'
p76
ssS'upload'
p77
(dp78
S'speed'
p79
S'57600'
p80
sS'maximum_size'
p81
S'30720'
p82
sS'protocol'
p83
S'arduino'
p84
ssS'name'
p85
S'Arduino Duemilanove w/ ATmega328'
p86
sS'build'
p87
(dp88
S'core'
p89
S'arduino'
p90
sS'mcu'
p91
S'atmega328p'
p92
sS'f_cpu'
p93
S'16000000L'
p94
sS'variant'
p95
S'standard'
p96
ssaa(lp97
S'diecimila'
p98
a(dp99
S'bootloader'
p100
(dp101
S'extended_fuses'
p102
S'0x00'
p103
sS'high_fuses'
p104
S'0xdd'
p105
sS'low_fuses'
p106
S'0xff'
p107
sS'lock_bits'
p108
S'0x0F'
p109
sS'file'
p110
S'ATmegaBOOT_168_diecimila.hex'
p111
sS'path'
p112
S'atmega'
p113
sS'unlock_bits'
p114
S'0x3F'
p115
ssS'upload'
p116
(dp117
S'speed'
p118
S'19200'
p119
sS'maximum_size'
p120
S'14336'
p121
sS'protocol'
p122
S'arduino'
p123
ssS'name'
p124
S'Arduino Diecimila or Duemilanove w/ ATmega168'
p125
sS'build'
p126
(dp127
S'core'
p128
S'arduino'
p129
sS'mcu'
p130
S'atmega168'
p131
sS'f_cpu'
p132
S'16000000L'
p133
sS'variant'
p134
S'standard'
p135
ssaa(lp136
S'nano328'
p137
a(dp138
S'bootloader'
p139
(dp140
S'extended_fuses'
p141
S'0x05'
p142
sS'high_fuses'
p143
S'0xDA'
p144
sS'low_fuses'
p145
S'0xFF'
p146
sS'lock_bits'
p147
S'0x0F'
p148
sS'file'
p149
S'ATmegaBOOT_168_atmega328.hex'
p150
sS'path'
p151
S'atmega'
p152
sS'unlock_bits'
p153
S'0x3F'
p154
ssS'upload'
p155
(dp156
S'speed'
p157
S'57600'
p158
sS'maximum_size'
p159
S'30720'
p160
sS'protocol'
p161
S'arduino'
p162
ssS'name'
p163
S'Arduino Nano w/ ATmega328'
p164
sS'build'
p165
(dp166
S'core'
p167
S'arduino'
p168
sS'mcu'
p169
S'atmega328p'
p170
sS'f_cpu'
p171
S'16000000L'
p172
sS'variant'
p173
S'eightanaloginputs'
p174
ssaa(lp175
S'nano'
p176
a(dp177
S'bootloader'
p178
(dp179
S'extended_fuses'
p180
S'0x00'
p181
sS'high_fuses'
p182
S'0xdd'
p183
sS'low_fuses'
p184
S'0xff'
p185
sS'lock_bits'
p186
S'0x0F'
p187
sS'file'
p188
S'ATmegaBOOT_168_diecimila.hex'
p189
sS'path'
p190
S'atmega'
p191
sS'unlock_bits'
p192
S'0x3F'
p193
ssS'upload'
p194
(dp195
S'speed'
p196
S'19200'
p197
sS'maximum_size'
p198
S'14336'
p199
sS'protocol'
p200
S'arduino'
p201
ssS'name'
p202
S'Arduino Nano w/ ATmega168'
p203
sS'build'
p204
(dp205
S'core'
p206
S'arduino'
p207
sS'mcu'
p208
S'atmega168'
p209
sS'f_cpu'
p210
S'16000000L'
p211
sS'variant'
p212
S'eightanaloginputs'
p213
ssaa(lp214
S'mega2560'
p215
a(dp216
S'bootloader'
p217
(dp218
S'extended_fuses'
p219
S'0xFD'
p220
sS'high_fuses'
p221
S'0xD8'
p222
sS'low_fuses'
p223
S'0xFF'
p224
sS'lock_bits'
p225
S'0x0F'
p226
sS'file'
p227
S'stk500boot_v2_mega2560.hex'
p228
sS'path'
p229
S'stk500v2'
p230
sS'unlock_bits'
p231
S'0x3F'
p232
ssS'upload'
p233
(dp234
S'speed'
p235
S'115200'
p236
sS'maximum_size'
p237
S'258048'
p238
sS'protocol'
p239
S'stk500v2'
p240
ssS'name'
p241
S'Arduino Mega 2560 or Mega ADK'
p242
sS'build'
p243
(dp244
S'core'
p245
S'arduino'
p246
sS'mcu'
p247
S'atmega2560'
p248
sS'f_cpu'
p249
S'16000000L'
p250
sS'variant'
p251
S'mega'
p252
ssaa(lp253
S'mega'
p254
a(dp255
S'bootloader'
p256
(dp257
S'extended_fuses'
p258
S'0xF5'
p259
sS'high_fuses'
p260
S'0xDA'
p261
sS'low_fuses'
p262
S'0xFF'
p263
sS'lock_bits'
p264
S'0x0F'
p265
sS'file'
p266
S'ATmegaBOOT_168_atmega1280.hex'
p267
sS'path'
p268
S'atmega'
p269
sS'unlock_bits'
p270
S'0x3F'
p271
ssS'upload'
p272
(dp273
S'speed'
p274
S'57600'
p275
sS'maximum_size'
p276
S'126976'
p277
sS'protocol'
p278
S'arduino'
p279
ssS'name'
p280
S'Arduino Mega (ATmega1280)'
p281
sS'build'
p282
(dp283
S'core'
p284
S'arduino'
p285
sS'mcu'
p286
S'atmega1280'
p287
sS'f_cpu'
p288
S'16000000L'
p289
sS'variant'
p290
S'mega'
p291
ssaa(lp292
S'leonardo'
p293
a(dp294
S'bootloader'
p295
(dp296
S'extended_fuses'
p297
S'0xcb'
p298
sS'high_fuses'
p299
S'0xd8'
p300
sS'low_fuses'
p301
S'0xff'
p302
sS'lock_bits'
p303
S'0x2F'
p304
sS'file'
p305
S'Caterina-Leonardo.hex'
p306
sS'path'
p307
S'caterina'
p308
sS'unlock_bits'
p309
S'0x3F'
p310
ssS'upload'
p311
(dp312
S'speed'
p313
S'57600'
p314
sS'maximum_size'
p315
S'28672'
p316
sS'protocol'
p317
S'avr109'
p318
sS'disable_flushing'
p319
S'true'
p320
ssS'name'
p321
S'Arduino Leonardo'
p322
sS'build'
p323
(dp324
S'core'
p325
S'arduino'
p326
sS'f_cpu'
p327
S'16000000L'
p328
sS'vid'
p329
S'0x2341'
p330
sS'pid'
p331
S'0x8036'
p332
sS'variant'
p333
S'leonardo'
p334
sS'mcu'
p335
S'atmega32u4'
p336
ssaa(lp337
S'mini328'
p338
a(dp339
S'bootloader'
p340
(dp341
S'extended_fuses'
p342
S'0x05'
p343
sS'high_fuses'
p344
S'0xd8'
p345
sS'low_fuses'
p346
S'0xff'
p347
sS'lock_bits'
p348
S'0x0F'
p349
sS'file'
p350
S'optiboot_atmega328-Mini.hex'
p351
sS'path'
p352
S'optiboot'
p353
sS'unlock_bits'
p354
S'0x3F'
p355
ssS'upload'
p356
(dp357
S'speed'
p358
S'115200'
p359
sS'maximum_size'
p360
S'28672'
p361
sS'protocol'
p362
S'arduino'
p363
ssS'name'
p364
S'Arduino Mini w/ ATmega328'
p365
sS'build'
p366
(dp367
S'core'
p368
S'arduino'
p369
sS'mcu'
p370
S'atmega328p'
p371
sS'f_cpu'
p372
S'16000000L'
p373
sS'variant'
p374
S'eightanaloginputs'
p375
ssaa(lp376
S'mini'
p377
a(dp378
S'bootloader'
p379
(dp380
S'extended_fuses'
p381
S'0x00'
p382
sS'high_fuses'
p383
S'0xdd'
p384
sS'low_fuses'
p385
S'0xff'
p386
sS'lock_bits'
p387
S'0x0F'
p388
sS'file'
p389
S'ATmegaBOOT_168_ng.hex'
p390
sS'path'
p391
S'atmega'
p392
sS'unlock_bits'
p393
S'0x3F'
p394
ssS'upload'
p395
(dp396
S'speed'
p397
S'19200'
p398
sS'maximum_size'
p399
S'14336'
p400
sS'protocol'
p401
S'arduino'
p402
ssS'name'
p403
S'Arduino Mini w/ ATmega168'
p404
sS'build'
p405
(dp406
S'core'
p407
S'arduino'
p408
sS'mcu'
p409
S'atmega168'
p410
sS'f_cpu'
p411
S'16000000L'
p412
sS'variant'
p413
S'eightanaloginputs'
p414
ssaa(lp415
S'ethernet'
p416
a(dp417
S'bootloader'
p418
(dp419
S'extended_fuses'
p420
S'0x05'
p421
sS'high_fuses'
p422
S'0xde'
p423
sS'low_fuses'
p424
S'0xff'
p425
sS'lock_bits'
p426
S'0x0F'
p427
sS'file'
p428
S'optiboot_atmega328.hex'
p429
sS'path'
p430
S'optiboot'
p431
sS'unlock_bits'
p432
S'0x3F'
p433
ssS'upload'
p434
(dp435
S'speed'
p436
S'115200'
p437
sS'maximum_size'
p438
S'32256'
p439
sS'protocol'
p440
S'arduino'
p441
ssS'name'
p442
S'Arduino Ethernet'
p443
sS'build'
p444
(dp445
S'f_cpu'
p446
S'16000000L'
p447
sS'mcu'
p448
S'atmega328p'
p449
sS'variant'
p450
S'standard'
p451
sS'core'
p452
S'arduino'
p453
ssaa(lp454
S'fio'
p455
a(dp456
S'bootloader'
p457
(dp458
S'extended_fuses'
p459
S'0x05'
p460
sS'high_fuses'
p461
S'0xDA'
p462
sS'low_fuses'
p463
S'0xFF'
p464
sS'lock_bits'
p465
S'0x0F'
p466
sS'file'
p467
S'ATmegaBOOT_168_atmega328_pro_8MHz.hex'
p468
sS'path'
p469
S'arduino:atmega'
p470
sS'unlock_bits'
p471
S'0x3F'
p472
ssS'upload'
p473
(dp474
S'speed'
p475
S'57600'
p476
sS'maximum_size'
p477
S'30720'
p478
sS'protocol'
p479
S'arduino'
p480
ssS'name'
p481
S'Arduino Fio'
p482
sS'build'
p483
(dp484
S'core'
p485
S'arduino'
p486
sS'mcu'
p487
S'atmega328p'
p488
sS'f_cpu'
p489
S'8000000L'
p490
sS'variant'
p491
S'eightanaloginputs'
p492
ssaa(lp493
S'bt328'
p494
a(dp495
S'bootloader'
p496
(dp497
S'extended_fuses'
p498
S'0x05'
p499
sS'high_fuses'
p500
S'0xd8'
p501
sS'low_fuses'
p502
S'0xff'
p503
sS'lock_bits'
p504
S'0x0F'
p505
sS'file'
p506
S'ATmegaBOOT_168_atmega328_bt.hex'
p507
sS'path'
p508
S'bt'
p509
sS'unlock_bits'
p510
S'0x3F'
p511
ssS'upload'
p512
(dp513
S'speed'
p514
S'19200'
p515
sS'maximum_size'
p516
S'28672'
p517
sS'protocol'
p518
S'arduino'
p519
sS'disable_flushing'
p520
S'true'
p521
ssS'name'
p522
S'Arduino BT w/ ATmega328'
p523
sS'build'
p524
(dp525
S'core'
p526
S'arduino'
p527
sS'mcu'
p528
S'atmega328p'
p529
sS'f_cpu'
p530
S'16000000L'
p531
sS'variant'
p532
S'eightanaloginputs'
p533
ssaa(lp534
S'bt'
p535
a(dp536
S'bootloader'
p537
(dp538
S'extended_fuses'
p539
S'0x00'
p540
sS'high_fuses'
p541
S'0xdd'
p542
sS'low_fuses'
p543
S'0xff'
p544
sS'lock_bits'
p545
S'0x0F'
p546
sS'file'
p547
S'ATmegaBOOT_168.hex'
p548
sS'path'
p549
S'bt'
p550
sS'unlock_bits'
p551
S'0x3F'
p552
ssS'upload'
p553
(dp554
S'speed'
p555
S'19200'
p556
sS'maximum_size'
p557
S'14336'
p558
sS'protocol'
p559
S'arduino'
p560
sS'disable_flushing'
p561
S'true'
p562
ssS'name'
p563
S'Arduino BT w/ ATmega168'
p564
sS'build'
p565
(dp566
S'core'
p567
S'arduino'
p568
sS'mcu'
p569
S'atmega168'
p570
sS'f_cpu'
p571
S'16000000L'
p572
sS'variant'
p573
S'eightanaloginputs'
p574
ssaa(lp575
S'lilypad328'
p576
a(dp577
S'bootloader'
p578
(dp579
S'extended_fuses'
p580
S'0x05'
p581
sS'high_fuses'
p582
S'0xDA'
p583
sS'low_fuses'
p584
S'0xFF'
p585
sS'lock_bits'
p586
S'0x0F'
p587
sS'file'
p588
S'ATmegaBOOT_168_atmega328_pro_8MHz.hex'
p589
sS'path'
p590
S'atmega'
p591
sS'unlock_bits'
p592
S'0x3F'
p593
ssS'upload'
p594
(dp595
S'speed'
p596
S'57600'
p597
sS'maximum_size'
p598
S'30720'
p599
sS'protocol'
p600
S'arduino'
p601
ssS'name'
p602
S'LilyPad Arduino w/ ATmega328'
p603
sS'build'
p604
(dp605
S'core'
p606
S'arduino'
p607
sS'mcu'
p608
S'atmega328p'
p609
sS'f_cpu'
p610
S'8000000L'
p611
sS'variant'
p612
S'standard'
p613
ssaa(lp614
S'lilypad'
p615
a(dp616
S'bootloader'
p617
(dp618
S'extended_fuses'
p619
S'0x00'
p620
sS'high_fuses'
p621
S'0xdd'
p622
sS'low_fuses'
p623
S'0xe2'
p624
sS'lock_bits'
p625
S'0x0F'
p626
sS'file'
p627
S'LilyPadBOOT_168.hex'
p628
sS'path'
p629
S'lilypad'
p630
sS'unlock_bits'
p631
S'0x3F'
p632
ssS'upload'
p633
(dp634
S'speed'
p635
S'19200'
p636
sS'maximum_size'
p637
S'14336'
p638
sS'protocol'
p639
S'arduino'
p640
ssS'name'
p641
S'LilyPad Arduino w/ ATmega168'
p642
sS'build'
p643
(dp644
S'core'
p645
S'arduino'
p646
sS'mcu'
p647
S'atmega168'
p648
sS'f_cpu'
p649
S'8000000L'
p650
sS'variant'
p651
S'standard'
p652
ssaa(lp653
S'pro5v328'
p654
a(dp655
S'bootloader'
p656
(dp657
S'extended_fuses'
p658
S'0x05'
p659
sS'high_fuses'
p660
S'0xDA'
p661
sS'low_fuses'
p662
S'0xFF'
p663
sS'lock_bits'
p664
S'0x0F'
p665
sS'file'
p666
S'ATmegaBOOT_168_atmega328.hex'
p667
sS'path'
p668
S'atmega'
p669
sS'unlock_bits'
p670
S'0x3F'
p671
ssS'upload'
p672
(dp673
S'speed'
p674
S'57600'
p675
sS'maximum_size'
p676
S'30720'
p677
sS'protocol'
p678
S'arduino'
p679
ssS'name'
p680
S'Arduino Pro or Pro Mini (5V, 16 MHz) w/ ATmega328'
p681
sS'build'
p682
(dp683
S'core'
p684
S'arduino'
p685
sS'mcu'
p686
S'atmega328p'
p687
sS'f_cpu'
p688
S'16000000L'
p689
sS'variant'
p690
S'standard'
p691
ssaa(lp692
S'pro5v'
p693
a(dp694
S'bootloader'
p695
(dp696
S'extended_fuses'
p697
S'0x00'
p698
sS'high_fuses'
p699
S'0xdd'
p700
sS'low_fuses'
p701
S'0xff'
p702
sS'lock_bits'
p703
S'0x0F'
p704
sS'file'
p705
S'ATmegaBOOT_168_diecimila.hex'
p706
sS'path'
p707
S'atmega'
p708
sS'unlock_bits'
p709
S'0x3F'
p710
ssS'upload'
p711
(dp712
S'speed'
p713
S'19200'
p714
sS'maximum_size'
p715
S'14336'
p716
sS'protocol'
p717
S'arduino'
p718
ssS'name'
p719
S'Arduino Pro or Pro Mini (5V, 16 MHz) w/ ATmega168'
p720
sS'build'
p721
(dp722
S'core'
p723
S'arduino'
p724
sS'mcu'
p725
S'atmega168'
p726
sS'f_cpu'
p727
S'16000000L'
p728
sS'variant'
p729
S'standard'
p730
ssaa(lp731
S'pro328'
p732
a(dp733
S'bootloader'
p734
(dp735
S'extended_fuses'
p736
S'0x05'
p737
sS'high_fuses'
p738
S'0xDA'
p739
sS'low_fuses'
p740
S'0xFF'
p741
sS'lock_bits'
p742
S'0x0F'
p743
sS'file'
p744
S'ATmegaBOOT_168_atmega328_pro_8MHz.hex'
p745
sS'path'
p746
S'atmega'
p747
sS'unlock_bits'
p748
S'0x3F'
p749
ssS'upload'
p750
(dp751
S'speed'
p752
S'57600'
p753
sS'maximum_size'
p754
S'30720'
p755
sS'protocol'
p756
S'arduino'
p757
ssS'name'
p758
S'Arduino Pro or Pro Mini (3.3V, 8 MHz) w/ ATmega328'
p759
sS'build'
p760
(dp761
S'core'
p762
S'arduino'
p763
sS'mcu'
p764
S'atmega328p'
p765
sS'f_cpu'
p766
S'8000000L'
p767
sS'variant'
p768
S'standard'
p769
ssaa(lp770
S'pro'
p771
a(dp772
S'bootloader'
p773
(dp774
S'extended_fuses'
p775
S'0x00'
p776
sS'high_fuses'
p777
S'0xdd'
p778
sS'low_fuses'
p779
S'0xc6'
p780
sS'lock_bits'
p781
S'0x0F'
p782
sS'file'
p783
S'ATmegaBOOT_168_pro_8MHz.hex'
p784
sS'path'
p785
S'atmega'
p786
sS'unlock_bits'
p787
S'0x3F'
p788
ssS'upload'
p789
(dp790
S'speed'
p791
S'19200'
p792
sS'maximum_size'
p793
S'14336'
p794
sS'protocol'
p795
S'arduino'
p796
ssS'name'
p797
S'Arduino Pro or Pro Mini (3.3V, 8 MHz) w/ ATmega168'
p798
sS'build'
p799
(dp800
S'core'
p801
S'arduino'
p802
sS'mcu'
p803
S'atmega168'
p804
sS'f_cpu'
p805
S'8000000L'
p806
sS'variant'
p807
S'standard'
p808
ssaa(lp809
S'atmega168'
p810
a(dp811
S'bootloader'
p812
(dp813
S'extended_fuses'
p814
S'0x00'
p815
sS'high_fuses'
p816
S'0xdd'
p817
sS'low_fuses'
p818
S'0xff'
p819
sS'lock_bits'
p820
S'0x0F'
p821
sS'file'
p822
S'ATmegaBOOT_168_ng.hex'
p823
sS'path'
p824
S'atmega'
p825
sS'unlock_bits'
p826
S'0x3F'
p827
ssS'upload'
p828
(dp829
S'speed'
p830
S'19200'
p831
sS'maximum_size'
p832
S'14336'
p833
sS'protocol'
p834
S'arduino'
p835
ssS'name'
p836
S'Arduino NG or older w/ ATmega168'
p837
sS'build'
p838
(dp839
S'core'
p840
S'arduino'
p841
sS'mcu'
p842
S'atmega168'
p843
sS'f_cpu'
p844
S'16000000L'
p845
sS'variant'
p846
S'standard'
p847
ssaa(lp848
S'atmega8'
p849
a(dp850
S'bootloader'
p851
(dp852
S'high_fuses'
p853
S'0xca'
p854
sS'low_fuses'
p855
S'0xdf'
p856
sS'lock_bits'
p857
S'0x0F'
p858
sS'file'
p859
S'ATmegaBOOT.hex'
p860
sS'path'
p861
S'atmega8'
p862
sS'unlock_bits'
p863
S'0x3F'
p864
ssS'upload'
p865
(dp866
S'speed'
p867
S'19200'
p868
sS'maximum_size'
p869
S'7168'
p870
sS'protocol'
p871
S'arduino'
p872
ssS'name'
p873
S'Arduino NG or older w/ ATmega8'
p874
sS'build'
p875
(dp876
S'core'
p877
S'arduino'
p878
sS'mcu'
p879
S'atmega8'
p880
sS'f_cpu'
p881
S'16000000L'
p882
sS'variant'
p883
S'standard'
p884
ssaatp885
Rp886
(dp887
S'default'
p888
S'uno'
p889
sbtp890
a.