(lp0
(S'stty'
p1
S'/bin/stty'
p2
tp3
a(S'build_dir'
p4
S'.build/uno'
p5
tp6
a(S'boards.txt'
p7
S'/Applications/Arduino.app/Contents/Resources/Java/hardware/arduino/boards.txt'
p8
tp9
a(S'avrdude'
p10
S'/Applications/Arduino.app/Contents/Resources/Java/hardware/tools/avr/bin/avrdude'
p11
tp12
a(S'avrdude.conf'
p13
S'/Applications/Arduino.app/Contents/Resources/Java/hardware/tools/avr/etc/avrdude.conf'
p14
tp15
a(S'board_models'
p16
cino.environment
BoardModels
p17
((lp18
(lp19
S'uno'
p20
a(dp21
S'bootloader'
p22
(dp23
S'extended_fuses'
p24
S'0x05'
p25
sS'high_fuses'
p26
S'0xde'
p27
sS'low_fuses'
p28
S'0xff'
p29
sS'lock_bits'
p30
S'0x0F'
p31
sS'file'
p32
S'optiboot_atmega328.hex'
p33
sS'path'
p34
S'optiboot'
p35
sS'unlock_bits'
p36
S'0x3F'
p37
ssS'upload'
p38
(dp39
S'protocol'
p40
S'arduino'
p41
sS'maximum_size'
p42
S'32256'
p43
sS'speed'
p44
S'115200'
p45
ssS'build'
p46
(dp47
S'core'
p48
S'arduino'
p49
sS'mcu'
p50
S'atmega328p'
p51
sS'f_cpu'
p52
S'16000000L'
p53
sS'variant'
p54
S'standard'
p55
ssS'name'
p56
S'Arduino Uno'
p57
saa(lp58
S'atmega328'
p59
a(dp60
S'bootloader'
p61
(dp62
S'extended_fuses'
p63
S'0x05'
p64
sS'high_fuses'
p65
S'0xDA'
p66
sS'low_fuses'
p67
S'0xFF'
p68
sS'lock_bits'
p69
S'0x0F'
p70
sS'file'
p71
S'ATmegaBOOT_168_atmega328.hex'
p72
sS'path'
p73
S'atmega'
p74
sS'unlock_bits'
p75
S'0x3F'
p76
ssS'upload'
p77
(dp78
S'protocol'
p79
S'arduino'
p80
sS'maximum_size'
p81
S'30720'
p82
sS'speed'
p83
S'57600'
p84
ssS'build'
p85
(dp86
S'core'
p87
S'arduino'
p88
sS'mcu'
p89
S'atmega328p'
p90
sS'f_cpu'
p91
S'16000000L'
p92
sS'variant'
p93
S'standard'
p94
ssS'name'
p95
S'Arduino Duemilanove w/ ATmega328'
p96
saa(lp97
S'diecimila'
p98
a(dp99
S'bootloader'
p100
(dp101
S'extended_fuses'
p102
S'0x00'
p103
sS'high_fuses'
p104
S'0xdd'
p105
sS'low_fuses'
p106
S'0xff'
p107
sS'lock_bits'
p108
S'0x0F'
p109
sS'file'
p110
S'ATmegaBOOT_168_diecimila.hex'
p111
sS'path'
p112
S'atmega'
p113
sS'unlock_bits'
p114
S'0x3F'
p115
ssS'upload'
p116
(dp117
S'protocol'
p118
S'arduino'
p119
sS'maximum_size'
p120
S'14336'
p121
sS'speed'
p122
S'19200'
p123
ssS'build'
p124
(dp125
S'core'
p126
S'arduino'
p127
sS'mcu'
p128
S'atmega168'
p129
sS'f_cpu'
p130
S'16000000L'
p131
sS'variant'
p132
S'standard'
p133
ssS'name'
p134
S'Arduino Diecimila or Duemilanove w/ ATmega168'
p135
saa(lp136
S'nano328'
p137
a(dp138
S'bootloader'
p139
(dp140
S'extended_fuses'
p141
S'0x05'
p142
sS'high_fuses'
p143
S'0xDA'
p144
sS'low_fuses'
p145
S'0xFF'
p146
sS'lock_bits'
p147
S'0x0F'
p148
sS'file'
p149
S'ATmegaBOOT_168_atmega328.hex'
p150
sS'path'
p151
S'atmega'
p152
sS'unlock_bits'
p153
S'0x3F'
p154
ssS'upload'
p155
(dp156
S'protocol'
p157
S'arduino'
p158
sS'maximum_size'
p159
S'30720'
p160
sS'speed'
p161
S'57600'
p162
ssS'build'
p163
(dp164
S'core'
p165
S'arduino'
p166
sS'mcu'
p167
S'atmega328p'
p168
sS'f_cpu'
p169
S'16000000L'
p170
sS'variant'
p171
S'eightanaloginputs'
p172
ssS'name'
p173
S'Arduino Nano w/ ATmega328'
p174
saa(lp175
S'nano'
p176
a(dp177
S'bootloader'
p178
(dp179
S'extended_fuses'
p180
S'0x00'
p181
sS'high_fuses'
p182
S'0xdd'
p183
sS'low_fuses'
p184
S'0xff'
p185
sS'lock_bits'
p186
S'0x0F'
p187
sS'file'
p188
S'ATmegaBOOT_168_diecimila.hex'
p189
sS'path'
p190
S'atmega'
p191
sS'unlock_bits'
p192
S'0x3F'
p193
ssS'upload'
p194
(dp195
S'protocol'
p196
S'arduino'
p197
sS'maximum_size'
p198
S'14336'
p199
sS'speed'
p200
S'19200'
p201
ssS'build'
p202
(dp203
S'core'
p204
S'arduino'
p205
sS'mcu'
p206
S'atmega168'
p207
sS'f_cpu'
p208
S'16000000L'
p209
sS'variant'
p210
S'eightanaloginputs'
p211
ssS'name'
p212
S'Arduino Nano w/ ATmega168'
p213
saa(lp214
S'mega2560'
p215
a(dp216
S'bootloader'
p217
(dp218
S'extended_fuses'
p219
S'0xFD'
p220
sS'high_fuses'
p221
S'0xD8'
p222
sS'low_fuses'
p223
S'0xFF'
p224
sS'lock_bits'
p225
S'0x0F'
p226
sS'file'
p227
S'stk500boot_v2_mega2560.hex'
p228
sS'path'
p229
S'stk500v2'
p230
sS'unlock_bits'
p231
S'0x3F'
p232
ssS'upload'
p233
(dp234
S'protocol'
p235
S'stk500v2'
p236
sS'maximum_size'
p237
S'258048'
p238
sS'speed'
p239
S'115200'
p240
ssS'build'
p241
(dp242
S'core'
p243
S'arduino'
p244
sS'mcu'
p245
S'atmega2560'
p246
sS'f_cpu'
p247
S'16000000L'
p248
sS'variant'
p249
S'mega'
p250
ssS'name'
p251
S'Arduino Mega 2560 or Mega ADK'
p252
saa(lp253
S'mega'
p254
a(dp255
S'bootloader'
p256
(dp257
S'extended_fuses'
p258
S'0xF5'
p259
sS'high_fuses'
p260
S'0xDA'
p261
sS'low_fuses'
p262
S'0xFF'
p263
sS'lock_bits'
p264
S'0x0F'
p265
sS'file'
p266
S'ATmegaBOOT_168_atmega1280.hex'
p267
sS'path'
p268
S'atmega'
p269
sS'unlock_bits'
p270
S'0x3F'
p271
ssS'upload'
p272
(dp273
S'protocol'
p274
S'arduino'
p275
sS'maximum_size'
p276
S'126976'
p277
sS'speed'
p278
S'57600'
p279
ssS'build'
p280
(dp281
S'core'
p282
S'arduino'
p283
sS'mcu'
p284
S'atmega1280'
p285
sS'f_cpu'
p286
S'16000000L'
p287
sS'variant'
p288
S'mega'
p289
ssS'name'
p290
S'Arduino Mega (ATmega1280)'
p291
saa(lp292
S'leonardo'
p293
a(dp294
S'bootloader'
p295
(dp296
S'extended_fuses'
p297
S'0xcb'
p298
sS'high_fuses'
p299
S'0xd8'
p300
sS'low_fuses'
p301
S'0xff'
p302
sS'lock_bits'
p303
S'0x2F'
p304
sS'file'
p305
S'Caterina-Leonardo.hex'
p306
sS'path'
p307
S'caterina'
p308
sS'unlock_bits'
p309
S'0x3F'
p310
ssS'upload'
p311
(dp312
S'protocol'
p313
S'avr109'
p314
sS'maximum_size'
p315
S'28672'
p316
sS'speed'
p317
S'57600'
p318
sS'disable_flushing'
p319
S'true'
p320
ssS'build'
p321
(dp322
S'core'
p323
S'arduino'
p324
sS'f_cpu'
p325
S'16000000L'
p326
sS'vid'
p327
S'0x2341'
p328
sS'pid'
p329
S'0x8036'
p330
sS'variant'
p331
S'leonardo'
p332
sS'mcu'
p333
S'atmega32u4'
p334
ssS'name'
p335
S'Arduino Leonardo'
p336
saa(lp337
S'mini328'
p338
a(dp339
S'bootloader'
p340
(dp341
S'extended_fuses'
p342
S'0x05'
p343
sS'high_fuses'
p344
S'0xd8'
p345
sS'low_fuses'
p346
S'0xff'
p347
sS'lock_bits'
p348
S'0x0F'
p349
sS'file'
p350
S'optiboot_atmega328-Mini.hex'
p351
sS'path'
p352
S'optiboot'
p353
sS'unlock_bits'
p354
S'0x3F'
p355
ssS'upload'
p356
(dp357
S'protocol'
p358
S'arduino'
p359
sS'maximum_size'
p360
S'28672'
p361
sS'speed'
p362
S'115200'
p363
ssS'build'
p364
(dp365
S'core'
p366
S'arduino'
p367
sS'mcu'
p368
S'atmega328p'
p369
sS'f_cpu'
p370
S'16000000L'
p371
sS'variant'
p372
S'eightanaloginputs'
p373
ssS'name'
p374
S'Arduino Mini w/ ATmega328'
p375
saa(lp376
S'mini'
p377
a(dp378
S'bootloader'
p379
(dp380
S'extended_fuses'
p381
S'0x00'
p382
sS'high_fuses'
p383
S'0xdd'
p384
sS'low_fuses'
p385
S'0xff'
p386
sS'lock_bits'
p387
S'0x0F'
p388
sS'file'
p389
S'ATmegaBOOT_168_ng.hex'
p390
sS'path'
p391
S'atmega'
p392
sS'unlock_bits'
p393
S'0x3F'
p394
ssS'upload'
p395
(dp396
S'protocol'
p397
S'arduino'
p398
sS'maximum_size'
p399
S'14336'
p400
sS'speed'
p401
S'19200'
p402
ssS'build'
p403
(dp404
S'core'
p405
S'arduino'
p406
sS'mcu'
p407
S'atmega168'
p408
sS'f_cpu'
p409
S'16000000L'
p410
sS'variant'
p411
S'eightanaloginputs'
p412
ssS'name'
p413
S'Arduino Mini w/ ATmega168'
p414
saa(lp415
S'ethernet'
p416
a(dp417
S'bootloader'
p418
(dp419
S'extended_fuses'
p420
S'0x05'
p421
sS'high_fuses'
p422
S'0xde'
p423
sS'low_fuses'
p424
S'0xff'
p425
sS'lock_bits'
p426
S'0x0F'
p427
sS'file'
p428
S'optiboot_atmega328.hex'
p429
sS'path'
p430
S'optiboot'
p431
sS'unlock_bits'
p432
S'0x3F'
p433
ssS'upload'
p434
(dp435
S'protocol'
p436
S'arduino'
p437
sS'maximum_size'
p438
S'32256'
p439
sS'speed'
p440
S'115200'
p441
ssS'build'
p442
(dp443
S'variant'
p444
S'standard'
p445
sS'mcu'
p446
S'atmega328p'
p447
sS'f_cpu'
p448
S'16000000L'
p449
sS'core'
p450
S'arduino'
p451
ssS'name'
p452
S'Arduino Ethernet'
p453
saa(lp454
S'fio'
p455
a(dp456
S'bootloader'
p457
(dp458
S'extended_fuses'
p459
S'0x05'
p460
sS'high_fuses'
p461
S'0xDA'
p462
sS'low_fuses'
p463
S'0xFF'
p464
sS'lock_bits'
p465
S'0x0F'
p466
sS'file'
p467
S'ATmegaBOOT_168_atmega328_pro_8MHz.hex'
p468
sS'path'
p469
S'arduino:atmega'
p470
sS'unlock_bits'
p471
S'0x3F'
p472
ssS'upload'
p473
(dp474
S'protocol'
p475
S'arduino'
p476
sS'maximum_size'
p477
S'30720'
p478
sS'speed'
p479
S'57600'
p480
ssS'build'
p481
(dp482
S'core'
p483
S'arduino'
p484
sS'mcu'
p485
S'atmega328p'
p486
sS'f_cpu'
p487
S'8000000L'
p488
sS'variant'
p489
S'eightanaloginputs'
p490
ssS'name'
p491
S'Arduino Fio'
p492
saa(lp493
S'bt328'
p494
a(dp495
S'bootloader'
p496
(dp497
S'extended_fuses'
p498
S'0x05'
p499
sS'high_fuses'
p500
S'0xd8'
p501
sS'low_fuses'
p502
S'0xff'
p503
sS'lock_bits'
p504
S'0x0F'
p505
sS'file'
p506
S'ATmegaBOOT_168_atmega328_bt.hex'
p507
sS'path'
p508
S'bt'
p509
sS'unlock_bits'
p510
S'0x3F'
p511
ssS'upload'
p512
(dp513
S'protocol'
p514
S'arduino'
p515
sS'maximum_size'
p516
S'28672'
p517
sS'speed'
p518
S'19200'
p519
sS'disable_flushing'
p520
S'true'
p521
ssS'build'
p522
(dp523
S'core'
p524
S'arduino'
p525
sS'mcu'
p526
S'atmega328p'
p527
sS'f_cpu'
p528
S'16000000L'
p529
sS'variant'
p530
S'eightanaloginputs'
p531
ssS'name'
p532
S'Arduino BT w/ ATmega328'
p533
saa(lp534
S'bt'
p535
a(dp536
S'bootloader'
p537
(dp538
S'extended_fuses'
p539
S'0x00'
p540
sS'high_fuses'
p541
S'0xdd'
p542
sS'low_fuses'
p543
S'0xff'
p544
sS'lock_bits'
p545
S'0x0F'
p546
sS'file'
p547
S'ATmegaBOOT_168.hex'
p548
sS'path'
p549
S'bt'
p550
sS'unlock_bits'
p551
S'0x3F'
p552
ssS'upload'
p553
(dp554
S'protocol'
p555
S'arduino'
p556
sS'maximum_size'
p557
S'14336'
p558
sS'speed'
p559
S'19200'
p560
sS'disable_flushing'
p561
S'true'
p562
ssS'build'
p563
(dp564
S'core'
p565
S'arduino'
p566
sS'mcu'
p567
S'atmega168'
p568
sS'f_cpu'
p569
S'16000000L'
p570
sS'variant'
p571
S'eightanaloginputs'
p572
ssS'name'
p573
S'Arduino BT w/ ATmega168'
p574
saa(lp575
S'lilypad328'
p576
a(dp577
S'bootloader'
p578
(dp579
S'extended_fuses'
p580
S'0x05'
p581
sS'high_fuses'
p582
S'0xDA'
p583
sS'low_fuses'
p584
S'0xFF'
p585
sS'lock_bits'
p586
S'0x0F'
p587
sS'file'
p588
S'ATmegaBOOT_168_atmega328_pro_8MHz.hex'
p589
sS'path'
p590
S'atmega'
p591
sS'unlock_bits'
p592
S'0x3F'
p593
ssS'upload'
p594
(dp595
S'protocol'
p596
S'arduino'
p597
sS'maximum_size'
p598
S'30720'
p599
sS'speed'
p600
S'57600'
p601
ssS'build'
p602
(dp603
S'core'
p604
S'arduino'
p605
sS'mcu'
p606
S'atmega328p'
p607
sS'f_cpu'
p608
S'8000000L'
p609
sS'variant'
p610
S'standard'
p611
ssS'name'
p612
S'LilyPad Arduino w/ ATmega328'
p613
saa(lp614
S'lilypad'
p615
a(dp616
S'bootloader'
p617
(dp618
S'extended_fuses'
p619
S'0x00'
p620
sS'high_fuses'
p621
S'0xdd'
p622
sS'low_fuses'
p623
S'0xe2'
p624
sS'lock_bits'
p625
S'0x0F'
p626
sS'file'
p627
S'LilyPadBOOT_168.hex'
p628
sS'path'
p629
S'lilypad'
p630
sS'unlock_bits'
p631
S'0x3F'
p632
ssS'upload'
p633
(dp634
S'protocol'
p635
S'arduino'
p636
sS'maximum_size'
p637
S'14336'
p638
sS'speed'
p639
S'19200'
p640
ssS'build'
p641
(dp642
S'core'
p643
S'arduino'
p644
sS'mcu'
p645
S'atmega168'
p646
sS'f_cpu'
p647
S'8000000L'
p648
sS'variant'
p649
S'standard'
p650
ssS'name'
p651
S'LilyPad Arduino w/ ATmega168'
p652
saa(lp653
S'pro5v328'
p654
a(dp655
S'bootloader'
p656
(dp657
S'extended_fuses'
p658
S'0x05'
p659
sS'high_fuses'
p660
S'0xDA'
p661
sS'low_fuses'
p662
S'0xFF'
p663
sS'lock_bits'
p664
S'0x0F'
p665
sS'file'
p666
S'ATmegaBOOT_168_atmega328.hex'
p667
sS'path'
p668
S'atmega'
p669
sS'unlock_bits'
p670
S'0x3F'
p671
ssS'upload'
p672
(dp673
S'protocol'
p674
S'arduino'
p675
sS'maximum_size'
p676
S'30720'
p677
sS'speed'
p678
S'57600'
p679
ssS'build'
p680
(dp681
S'core'
p682
S'arduino'
p683
sS'mcu'
p684
S'atmega328p'
p685
sS'f_cpu'
p686
S'16000000L'
p687
sS'variant'
p688
S'standard'
p689
ssS'name'
p690
S'Arduino Pro or Pro Mini (5V, 16 MHz) w/ ATmega328'
p691
saa(lp692
S'pro5v'
p693
a(dp694
S'bootloader'
p695
(dp696
S'extended_fuses'
p697
S'0x00'
p698
sS'high_fuses'
p699
S'0xdd'
p700
sS'low_fuses'
p701
S'0xff'
p702
sS'lock_bits'
p703
S'0x0F'
p704
sS'file'
p705
S'ATmegaBOOT_168_diecimila.hex'
p706
sS'path'
p707
S'atmega'
p708
sS'unlock_bits'
p709
S'0x3F'
p710
ssS'upload'
p711
(dp712
S'protocol'
p713
S'arduino'
p714
sS'maximum_size'
p715
S'14336'
p716
sS'speed'
p717
S'19200'
p718
ssS'build'
p719
(dp720
S'core'
p721
S'arduino'
p722
sS'mcu'
p723
S'atmega168'
p724
sS'f_cpu'
p725
S'16000000L'
p726
sS'variant'
p727
S'standard'
p728
ssS'name'
p729
S'Arduino Pro or Pro Mini (5V, 16 MHz) w/ ATmega168'
p730
saa(lp731
S'pro328'
p732
a(dp733
S'bootloader'
p734
(dp735
S'extended_fuses'
p736
S'0x05'
p737
sS'high_fuses'
p738
S'0xDA'
p739
sS'low_fuses'
p740
S'0xFF'
p741
sS'lock_bits'
p742
S'0x0F'
p743
sS'file'
p744
S'ATmegaBOOT_168_atmega328_pro_8MHz.hex'
p745
sS'path'
p746
S'atmega'
p747
sS'unlock_bits'
p748
S'0x3F'
p749
ssS'upload'
p750
(dp751
S'protocol'
p752
S'arduino'
p753
sS'maximum_size'
p754
S'30720'
p755
sS'speed'
p756
S'57600'
p757
ssS'build'
p758
(dp759
S'core'
p760
S'arduino'
p761
sS'mcu'
p762
S'atmega328p'
p763
sS'f_cpu'
p764
S'8000000L'
p765
sS'variant'
p766
S'standard'
p767
ssS'name'
p768
S'Arduino Pro or Pro Mini (3.3V, 8 MHz) w/ ATmega328'
p769
saa(lp770
S'pro'
p771
a(dp772
S'bootloader'
p773
(dp774
S'extended_fuses'
p775
S'0x00'
p776
sS'high_fuses'
p777
S'0xdd'
p778
sS'low_fuses'
p779
S'0xc6'
p780
sS'lock_bits'
p781
S'0x0F'
p782
sS'file'
p783
S'ATmegaBOOT_168_pro_8MHz.hex'
p784
sS'path'
p785
S'atmega'
p786
sS'unlock_bits'
p787
S'0x3F'
p788
ssS'upload'
p789
(dp790
S'protocol'
p791
S'arduino'
p792
sS'maximum_size'
p793
S'14336'
p794
sS'speed'
p795
S'19200'
p796
ssS'build'
p797
(dp798
S'core'
p799
S'arduino'
p800
sS'mcu'
p801
S'atmega168'
p802
sS'f_cpu'
p803
S'8000000L'
p804
sS'variant'
p805
S'standard'
p806
ssS'name'
p807
S'Arduino Pro or Pro Mini (3.3V, 8 MHz) w/ ATmega168'
p808
saa(lp809
S'atmega168'
p810
a(dp811
S'bootloader'
p812
(dp813
S'extended_fuses'
p814
S'0x00'
p815
sS'high_fuses'
p816
S'0xdd'
p817
sS'low_fuses'
p818
S'0xff'
p819
sS'lock_bits'
p820
S'0x0F'
p821
sS'file'
p822
S'ATmegaBOOT_168_ng.hex'
p823
sS'path'
p824
S'atmega'
p825
sS'unlock_bits'
p826
S'0x3F'
p827
ssS'upload'
p828
(dp829
S'protocol'
p830
S'arduino'
p831
sS'maximum_size'
p832
S'14336'
p833
sS'speed'
p834
S'19200'
p835
ssS'build'
p836
(dp837
S'core'
p838
S'arduino'
p839
sS'mcu'
p840
S'atmega168'
p841
sS'f_cpu'
p842
S'16000000L'
p843
sS'variant'
p844
S'standard'
p845
ssS'name'
p846
S'Arduino NG or older w/ ATmega168'
p847
saa(lp848
S'atmega8'
p849
a(dp850
S'bootloader'
p851
(dp852
S'high_fuses'
p853
S'0xca'
p854
sS'low_fuses'
p855
S'0xdf'
p856
sS'lock_bits'
p857
S'0x0F'
p858
sS'file'
p859
S'ATmegaBOOT.hex'
p860
sS'path'
p861
S'atmega8'
p862
sS'unlock_bits'
p863
S'0x3F'
p864
ssS'upload'
p865
(dp866
S'protocol'
p867
S'arduino'
p868
sS'maximum_size'
p869
S'7168'
p870
sS'speed'
p871
S'19200'
p872
ssS'build'
p873
(dp874
S'core'
p875
S'arduino'
p876
sS'mcu'
p877
S'atmega8'
p878
sS'f_cpu'
p879
S'16000000L'
p880
sS'variant'
p881
S'standard'
p882
ssS'name'
p883
S'Arduino NG or older w/ ATmega8'
p884
saatp885
Rp886
(dp887
S'default'
p888
S'uno'
p889
sbtp890
a.