(lp0
(S'stty'
p1
S'/bin/stty'
p2
tp3
a(S'build_dir'
p4
S'.build/uno'
p5
tp6
a(S'boards.txt'
p7
S'/Applications/Arduino.app/Contents/Resources/Java/hardware/arduino/boards.txt'
p8
tp9
a(S'avrdude'
p10
S'/Applications/Arduino.app/Contents/Resources/Java/hardware/tools/avr/bin/avrdude'
p11
tp12
a(S'avrdude.conf'
p13
S'/Applications/Arduino.app/Contents/Resources/Java/hardware/tools/avr/etc/avrdude.conf'
p14
tp15
a(S'board_models'
p16
cino.environment
BoardModels
p17
((lp18
(lp19
S'uno'
p20
a(dp21
S'bootloader'
p22
(dp23
S'extended_fuses'
p24
S'0x05'
p25
sS'high_fuses'
p26
S'0xde'
p27
sS'low_fuses'
p28
S'0xff'
p29
sS'lock_bits'
p30
S'0x0F'
p31
sS'file'
p32
S'optiboot_atmega328.hex'
p33
sS'path'
p34
S'optiboot'
p35
sS'unlock_bits'
p36
S'0x3F'
p37
ssS'build'
p38
(dp39
S'core'
p40
S'arduino'
p41
sS'mcu'
p42
S'atmega328p'
p43
sS'f_cpu'
p44
S'16000000L'
p45
sS'variant'
p46
S'standard'
p47
ssS'name'
p48
S'Arduino Uno'
p49
sS'upload'
p50
(dp51
S'speed'
p52
S'115200'
p53
sS'maximum_size'
p54
S'32256'
p55
sS'protocol'
p56
S'arduino'
p57
ssaa(lp58
S'atmega328'
p59
a(dp60
S'bootloader'
p61
(dp62
S'extended_fuses'
p63
S'0x05'
p64
sS'high_fuses'
p65
S'0xDA'
p66
sS'low_fuses'
p67
S'0xFF'
p68
sS'lock_bits'
p69
S'0x0F'
p70
sS'file'
p71
S'ATmegaBOOT_168_atmega328.hex'
p72
sS'path'
p73
S'atmega'
p74
sS'unlock_bits'
p75
S'0x3F'
p76
ssS'build'
p77
(dp78
S'core'
p79
S'arduino'
p80
sS'mcu'
p81
S'atmega328p'
p82
sS'f_cpu'
p83
S'16000000L'
p84
sS'variant'
p85
S'standard'
p86
ssS'name'
p87
S'Arduino Duemilanove w/ ATmega328'
p88
sS'upload'
p89
(dp90
S'speed'
p91
S'57600'
p92
sS'maximum_size'
p93
S'30720'
p94
sS'protocol'
p95
S'arduino'
p96
ssaa(lp97
S'diecimila'
p98
a(dp99
S'bootloader'
p100
(dp101
S'extended_fuses'
p102
S'0x00'
p103
sS'high_fuses'
p104
S'0xdd'
p105
sS'low_fuses'
p106
S'0xff'
p107
sS'lock_bits'
p108
S'0x0F'
p109
sS'file'
p110
S'ATmegaBOOT_168_diecimila.hex'
p111
sS'path'
p112
S'atmega'
p113
sS'unlock_bits'
p114
S'0x3F'
p115
ssS'build'
p116
(dp117
S'core'
p118
S'arduino'
p119
sS'mcu'
p120
S'atmega168'
p121
sS'f_cpu'
p122
S'16000000L'
p123
sS'variant'
p124
S'standard'
p125
ssS'name'
p126
S'Arduino Diecimila or Duemilanove w/ ATmega168'
p127
sS'upload'
p128
(dp129
S'speed'
p130
S'19200'
p131
sS'maximum_size'
p132
S'14336'
p133
sS'protocol'
p134
S'arduino'
p135
ssaa(lp136
S'nano328'
p137
a(dp138
S'bootloader'
p139
(dp140
S'extended_fuses'
p141
S'0x05'
p142
sS'high_fuses'
p143
S'0xDA'
p144
sS'low_fuses'
p145
S'0xFF'
p146
sS'lock_bits'
p147
S'0x0F'
p148
sS'file'
p149
S'ATmegaBOOT_168_atmega328.hex'
p150
sS'path'
p151
S'atmega'
p152
sS'unlock_bits'
p153
S'0x3F'
p154
ssS'build'
p155
(dp156
S'core'
p157
S'arduino'
p158
sS'mcu'
p159
S'atmega328p'
p160
sS'f_cpu'
p161
S'16000000L'
p162
sS'variant'
p163
S'eightanaloginputs'
p164
ssS'name'
p165
S'Arduino Nano w/ ATmega328'
p166
sS'upload'
p167
(dp168
S'speed'
p169
S'57600'
p170
sS'maximum_size'
p171
S'30720'
p172
sS'protocol'
p173
S'arduino'
p174
ssaa(lp175
S'nano'
p176
a(dp177
S'bootloader'
p178
(dp179
S'extended_fuses'
p180
S'0x00'
p181
sS'high_fuses'
p182
S'0xdd'
p183
sS'low_fuses'
p184
S'0xff'
p185
sS'lock_bits'
p186
S'0x0F'
p187
sS'file'
p188
S'ATmegaBOOT_168_diecimila.hex'
p189
sS'path'
p190
S'atmega'
p191
sS'unlock_bits'
p192
S'0x3F'
p193
ssS'build'
p194
(dp195
S'core'
p196
S'arduino'
p197
sS'mcu'
p198
S'atmega168'
p199
sS'f_cpu'
p200
S'16000000L'
p201
sS'variant'
p202
S'eightanaloginputs'
p203
ssS'name'
p204
S'Arduino Nano w/ ATmega168'
p205
sS'upload'
p206
(dp207
S'speed'
p208
S'19200'
p209
sS'maximum_size'
p210
S'14336'
p211
sS'protocol'
p212
S'arduino'
p213
ssaa(lp214
S'mega2560'
p215
a(dp216
S'bootloader'
p217
(dp218
S'extended_fuses'
p219
S'0xFD'
p220
sS'high_fuses'
p221
S'0xD8'
p222
sS'low_fuses'
p223
S'0xFF'
p224
sS'lock_bits'
p225
S'0x0F'
p226
sS'file'
p227
S'stk500boot_v2_mega2560.hex'
p228
sS'path'
p229
S'stk500v2'
p230
sS'unlock_bits'
p231
S'0x3F'
p232
ssS'build'
p233
(dp234
S'core'
p235
S'arduino'
p236
sS'mcu'
p237
S'atmega2560'
p238
sS'f_cpu'
p239
S'16000000L'
p240
sS'variant'
p241
S'mega'
p242
ssS'name'
p243
S'Arduino Mega 2560 or Mega ADK'
p244
sS'upload'
p245
(dp246
S'speed'
p247
S'115200'
p248
sS'maximum_size'
p249
S'258048'
p250
sS'protocol'
p251
S'stk500v2'
p252
ssaa(lp253
S'mega'
p254
a(dp255
S'bootloader'
p256
(dp257
S'extended_fuses'
p258
S'0xF5'
p259
sS'high_fuses'
p260
S'0xDA'
p261
sS'low_fuses'
p262
S'0xFF'
p263
sS'lock_bits'
p264
S'0x0F'
p265
sS'file'
p266
S'ATmegaBOOT_168_atmega1280.hex'
p267
sS'path'
p268
S'atmega'
p269
sS'unlock_bits'
p270
S'0x3F'
p271
ssS'build'
p272
(dp273
S'core'
p274
S'arduino'
p275
sS'mcu'
p276
S'atmega1280'
p277
sS'f_cpu'
p278
S'16000000L'
p279
sS'variant'
p280
S'mega'
p281
ssS'name'
p282
S'Arduino Mega (ATmega1280)'
p283
sS'upload'
p284
(dp285
S'speed'
p286
S'57600'
p287
sS'maximum_size'
p288
S'126976'
p289
sS'protocol'
p290
S'arduino'
p291
ssaa(lp292
S'leonardo'
p293
a(dp294
S'bootloader'
p295
(dp296
S'extended_fuses'
p297
S'0xcb'
p298
sS'high_fuses'
p299
S'0xd8'
p300
sS'low_fuses'
p301
S'0xff'
p302
sS'lock_bits'
p303
S'0x2F'
p304
sS'file'
p305
S'Caterina-Leonardo.hex'
p306
sS'path'
p307
S'caterina'
p308
sS'unlock_bits'
p309
S'0x3F'
p310
ssS'build'
p311
(dp312
S'core'
p313
S'arduino'
p314
sS'f_cpu'
p315
S'16000000L'
p316
sS'vid'
p317
S'0x2341'
p318
sS'pid'
p319
S'0x8036'
p320
sS'variant'
p321
S'leonardo'
p322
sS'mcu'
p323
S'atmega32u4'
p324
ssS'name'
p325
S'Arduino Leonardo'
p326
sS'upload'
p327
(dp328
S'speed'
p329
S'57600'
p330
sS'maximum_size'
p331
S'28672'
p332
sS'protocol'
p333
S'avr109'
p334
sS'disable_flushing'
p335
S'true'
p336
ssaa(lp337
S'mini328'
p338
a(dp339
S'bootloader'
p340
(dp341
S'extended_fuses'
p342
S'0x05'
p343
sS'high_fuses'
p344
S'0xd8'
p345
sS'low_fuses'
p346
S'0xff'
p347
sS'lock_bits'
p348
S'0x0F'
p349
sS'file'
p350
S'optiboot_atmega328-Mini.hex'
p351
sS'path'
p352
S'optiboot'
p353
sS'unlock_bits'
p354
S'0x3F'
p355
ssS'build'
p356
(dp357
S'core'
p358
S'arduino'
p359
sS'mcu'
p360
S'atmega328p'
p361
sS'f_cpu'
p362
S'16000000L'
p363
sS'variant'
p364
S'eightanaloginputs'
p365
ssS'name'
p366
S'Arduino Mini w/ ATmega328'
p367
sS'upload'
p368
(dp369
S'speed'
p370
S'115200'
p371
sS'maximum_size'
p372
S'28672'
p373
sS'protocol'
p374
S'arduino'
p375
ssaa(lp376
S'mini'
p377
a(dp378
S'bootloader'
p379
(dp380
S'extended_fuses'
p381
S'0x00'
p382
sS'high_fuses'
p383
S'0xdd'
p384
sS'low_fuses'
p385
S'0xff'
p386
sS'lock_bits'
p387
S'0x0F'
p388
sS'file'
p389
S'ATmegaBOOT_168_ng.hex'
p390
sS'path'
p391
S'atmega'
p392
sS'unlock_bits'
p393
S'0x3F'
p394
ssS'build'
p395
(dp396
S'core'
p397
S'arduino'
p398
sS'mcu'
p399
S'atmega168'
p400
sS'f_cpu'
p401
S'16000000L'
p402
sS'variant'
p403
S'eightanaloginputs'
p404
ssS'name'
p405
S'Arduino Mini w/ ATmega168'
p406
sS'upload'
p407
(dp408
S'speed'
p409
S'19200'
p410
sS'maximum_size'
p411
S'14336'
p412
sS'protocol'
p413
S'arduino'
p414
ssaa(lp415
S'ethernet'
p416
a(dp417
S'bootloader'
p418
(dp419
S'extended_fuses'
p420
S'0x05'
p421
sS'high_fuses'
p422
S'0xde'
p423
sS'low_fuses'
p424
S'0xff'
p425
sS'lock_bits'
p426
S'0x0F'
p427
sS'file'
p428
S'optiboot_atmega328.hex'
p429
sS'path'
p430
S'optiboot'
p431
sS'unlock_bits'
p432
S'0x3F'
p433
ssS'build'
p434
(dp435
S'f_cpu'
p436
S'16000000L'
p437
sS'mcu'
p438
S'atmega328p'
p439
sS'variant'
p440
S'standard'
p441
sS'core'
p442
S'arduino'
p443
ssS'name'
p444
S'Arduino Ethernet'
p445
sS'upload'
p446
(dp447
S'speed'
p448
S'115200'
p449
sS'maximum_size'
p450
S'32256'
p451
sS'protocol'
p452
S'arduino'
p453
ssaa(lp454
S'fio'
p455
a(dp456
S'bootloader'
p457
(dp458
S'extended_fuses'
p459
S'0x05'
p460
sS'high_fuses'
p461
S'0xDA'
p462
sS'low_fuses'
p463
S'0xFF'
p464
sS'lock_bits'
p465
S'0x0F'
p466
sS'file'
p467
S'ATmegaBOOT_168_atmega328_pro_8MHz.hex'
p468
sS'path'
p469
S'arduino:atmega'
p470
sS'unlock_bits'
p471
S'0x3F'
p472
ssS'build'
p473
(dp474
S'core'
p475
S'arduino'
p476
sS'mcu'
p477
S'atmega328p'
p478
sS'f_cpu'
p479
S'8000000L'
p480
sS'variant'
p481
S'eightanaloginputs'
p482
ssS'name'
p483
S'Arduino Fio'
p484
sS'upload'
p485
(dp486
S'speed'
p487
S'57600'
p488
sS'maximum_size'
p489
S'30720'
p490
sS'protocol'
p491
S'arduino'
p492
ssaa(lp493
S'bt328'
p494
a(dp495
S'bootloader'
p496
(dp497
S'extended_fuses'
p498
S'0x05'
p499
sS'high_fuses'
p500
S'0xd8'
p501
sS'low_fuses'
p502
S'0xff'
p503
sS'lock_bits'
p504
S'0x0F'
p505
sS'file'
p506
S'ATmegaBOOT_168_atmega328_bt.hex'
p507
sS'path'
p508
S'bt'
p509
sS'unlock_bits'
p510
S'0x3F'
p511
ssS'build'
p512
(dp513
S'core'
p514
S'arduino'
p515
sS'mcu'
p516
S'atmega328p'
p517
sS'f_cpu'
p518
S'16000000L'
p519
sS'variant'
p520
S'eightanaloginputs'
p521
ssS'name'
p522
S'Arduino BT w/ ATmega328'
p523
sS'upload'
p524
(dp525
S'speed'
p526
S'19200'
p527
sS'maximum_size'
p528
S'28672'
p529
sS'protocol'
p530
S'arduino'
p531
sS'disable_flushing'
p532
S'true'
p533
ssaa(lp534
S'bt'
p535
a(dp536
S'bootloader'
p537
(dp538
S'extended_fuses'
p539
S'0x00'
p540
sS'high_fuses'
p541
S'0xdd'
p542
sS'low_fuses'
p543
S'0xff'
p544
sS'lock_bits'
p545
S'0x0F'
p546
sS'file'
p547
S'ATmegaBOOT_168.hex'
p548
sS'path'
p549
S'bt'
p550
sS'unlock_bits'
p551
S'0x3F'
p552
ssS'build'
p553
(dp554
S'core'
p555
S'arduino'
p556
sS'mcu'
p557
S'atmega168'
p558
sS'f_cpu'
p559
S'16000000L'
p560
sS'variant'
p561
S'eightanaloginputs'
p562
ssS'name'
p563
S'Arduino BT w/ ATmega168'
p564
sS'upload'
p565
(dp566
S'speed'
p567
S'19200'
p568
sS'maximum_size'
p569
S'14336'
p570
sS'protocol'
p571
S'arduino'
p572
sS'disable_flushing'
p573
S'true'
p574
ssaa(lp575
S'lilypad328'
p576
a(dp577
S'bootloader'
p578
(dp579
S'extended_fuses'
p580
S'0x05'
p581
sS'high_fuses'
p582
S'0xDA'
p583
sS'low_fuses'
p584
S'0xFF'
p585
sS'lock_bits'
p586
S'0x0F'
p587
sS'file'
p588
S'ATmegaBOOT_168_atmega328_pro_8MHz.hex'
p589
sS'path'
p590
S'atmega'
p591
sS'unlock_bits'
p592
S'0x3F'
p593
ssS'build'
p594
(dp595
S'core'
p596
S'arduino'
p597
sS'mcu'
p598
S'atmega328p'
p599
sS'f_cpu'
p600
S'8000000L'
p601
sS'variant'
p602
S'standard'
p603
ssS'name'
p604
S'LilyPad Arduino w/ ATmega328'
p605
sS'upload'
p606
(dp607
S'speed'
p608
S'57600'
p609
sS'maximum_size'
p610
S'30720'
p611
sS'protocol'
p612
S'arduino'
p613
ssaa(lp614
S'lilypad'
p615
a(dp616
S'bootloader'
p617
(dp618
S'extended_fuses'
p619
S'0x00'
p620
sS'high_fuses'
p621
S'0xdd'
p622
sS'low_fuses'
p623
S'0xe2'
p624
sS'lock_bits'
p625
S'0x0F'
p626
sS'file'
p627
S'LilyPadBOOT_168.hex'
p628
sS'path'
p629
S'lilypad'
p630
sS'unlock_bits'
p631
S'0x3F'
p632
ssS'build'
p633
(dp634
S'core'
p635
S'arduino'
p636
sS'mcu'
p637
S'atmega168'
p638
sS'f_cpu'
p639
S'8000000L'
p640
sS'variant'
p641
S'standard'
p642
ssS'name'
p643
S'LilyPad Arduino w/ ATmega168'
p644
sS'upload'
p645
(dp646
S'speed'
p647
S'19200'
p648
sS'maximum_size'
p649
S'14336'
p650
sS'protocol'
p651
S'arduino'
p652
ssaa(lp653
S'pro5v328'
p654
a(dp655
S'bootloader'
p656
(dp657
S'extended_fuses'
p658
S'0x05'
p659
sS'high_fuses'
p660
S'0xDA'
p661
sS'low_fuses'
p662
S'0xFF'
p663
sS'lock_bits'
p664
S'0x0F'
p665
sS'file'
p666
S'ATmegaBOOT_168_atmega328.hex'
p667
sS'path'
p668
S'atmega'
p669
sS'unlock_bits'
p670
S'0x3F'
p671
ssS'build'
p672
(dp673
S'core'
p674
S'arduino'
p675
sS'mcu'
p676
S'atmega328p'
p677
sS'f_cpu'
p678
S'16000000L'
p679
sS'variant'
p680
S'standard'
p681
ssS'name'
p682
S'Arduino Pro or Pro Mini (5V, 16 MHz) w/ ATmega328'
p683
sS'upload'
p684
(dp685
S'speed'
p686
S'57600'
p687
sS'maximum_size'
p688
S'30720'
p689
sS'protocol'
p690
S'arduino'
p691
ssaa(lp692
S'pro5v'
p693
a(dp694
S'bootloader'
p695
(dp696
S'extended_fuses'
p697
S'0x00'
p698
sS'high_fuses'
p699
S'0xdd'
p700
sS'low_fuses'
p701
S'0xff'
p702
sS'lock_bits'
p703
S'0x0F'
p704
sS'file'
p705
S'ATmegaBOOT_168_diecimila.hex'
p706
sS'path'
p707
S'atmega'
p708
sS'unlock_bits'
p709
S'0x3F'
p710
ssS'build'
p711
(dp712
S'core'
p713
S'arduino'
p714
sS'mcu'
p715
S'atmega168'
p716
sS'f_cpu'
p717
S'16000000L'
p718
sS'variant'
p719
S'standard'
p720
ssS'name'
p721
S'Arduino Pro or Pro Mini (5V, 16 MHz) w/ ATmega168'
p722
sS'upload'
p723
(dp724
S'speed'
p725
S'19200'
p726
sS'maximum_size'
p727
S'14336'
p728
sS'protocol'
p729
S'arduino'
p730
ssaa(lp731
S'pro328'
p732
a(dp733
S'bootloader'
p734
(dp735
S'extended_fuses'
p736
S'0x05'
p737
sS'high_fuses'
p738
S'0xDA'
p739
sS'low_fuses'
p740
S'0xFF'
p741
sS'lock_bits'
p742
S'0x0F'
p743
sS'file'
p744
S'ATmegaBOOT_168_atmega328_pro_8MHz.hex'
p745
sS'path'
p746
S'atmega'
p747
sS'unlock_bits'
p748
S'0x3F'
p749
ssS'build'
p750
(dp751
S'core'
p752
S'arduino'
p753
sS'mcu'
p754
S'atmega328p'
p755
sS'f_cpu'
p756
S'8000000L'
p757
sS'variant'
p758
S'standard'
p759
ssS'name'
p760
S'Arduino Pro or Pro Mini (3.3V, 8 MHz) w/ ATmega328'
p761
sS'upload'
p762
(dp763
S'speed'
p764
S'57600'
p765
sS'maximum_size'
p766
S'30720'
p767
sS'protocol'
p768
S'arduino'
p769
ssaa(lp770
S'pro'
p771
a(dp772
S'bootloader'
p773
(dp774
S'extended_fuses'
p775
S'0x00'
p776
sS'high_fuses'
p777
S'0xdd'
p778
sS'low_fuses'
p779
S'0xc6'
p780
sS'lock_bits'
p781
S'0x0F'
p782
sS'file'
p783
S'ATmegaBOOT_168_pro_8MHz.hex'
p784
sS'path'
p785
S'atmega'
p786
sS'unlock_bits'
p787
S'0x3F'
p788
ssS'build'
p789
(dp790
S'core'
p791
S'arduino'
p792
sS'mcu'
p793
S'atmega168'
p794
sS'f_cpu'
p795
S'8000000L'
p796
sS'variant'
p797
S'standard'
p798
ssS'name'
p799
S'Arduino Pro or Pro Mini (3.3V, 8 MHz) w/ ATmega168'
p800
sS'upload'
p801
(dp802
S'speed'
p803
S'19200'
p804
sS'maximum_size'
p805
S'14336'
p806
sS'protocol'
p807
S'arduino'
p808
ssaa(lp809
S'atmega168'
p810
a(dp811
S'bootloader'
p812
(dp813
S'extended_fuses'
p814
S'0x00'
p815
sS'high_fuses'
p816
S'0xdd'
p817
sS'low_fuses'
p818
S'0xff'
p819
sS'lock_bits'
p820
S'0x0F'
p821
sS'file'
p822
S'ATmegaBOOT_168_ng.hex'
p823
sS'path'
p824
S'atmega'
p825
sS'unlock_bits'
p826
S'0x3F'
p827
ssS'build'
p828
(dp829
S'core'
p830
S'arduino'
p831
sS'mcu'
p832
S'atmega168'
p833
sS'f_cpu'
p834
S'16000000L'
p835
sS'variant'
p836
S'standard'
p837
ssS'name'
p838
S'Arduino NG or older w/ ATmega168'
p839
sS'upload'
p840
(dp841
S'speed'
p842
S'19200'
p843
sS'maximum_size'
p844
S'14336'
p845
sS'protocol'
p846
S'arduino'
p847
ssaa(lp848
S'atmega8'
p849
a(dp850
S'bootloader'
p851
(dp852
S'high_fuses'
p853
S'0xca'
p854
sS'low_fuses'
p855
S'0xdf'
p856
sS'lock_bits'
p857
S'0x0F'
p858
sS'file'
p859
S'ATmegaBOOT.hex'
p860
sS'path'
p861
S'atmega8'
p862
sS'unlock_bits'
p863
S'0x3F'
p864
ssS'build'
p865
(dp866
S'core'
p867
S'arduino'
p868
sS'mcu'
p869
S'atmega8'
p870
sS'f_cpu'
p871
S'16000000L'
p872
sS'variant'
p873
S'standard'
p874
ssS'name'
p875
S'Arduino NG or older w/ ATmega8'
p876
sS'upload'
p877
(dp878
S'speed'
p879
S'19200'
p880
sS'maximum_size'
p881
S'7168'
p882
sS'protocol'
p883
S'arduino'
p884
ssaatp885
Rp886
(dp887
S'default'
p888
S'uno'
p889
sbtp890
a.